; Function Attrs: mustprogress uwtable
define void @_ZNK8QuantLib20CapFloorTermVolCurve29initializeOptionDatesAndTimesEv(ptr noundef nonnull align 8 dereferenceable(256) %this) local_unnamed_addr #8 align 2 personality ptr @__gxx_personality_v0 {
entry:
  %ref.tmp.i = alloca %"class.QuantLib::Calendar", align 8
  %nOptionTenors_ = getelementptr inbounds nuw i8, ptr %this, i64 88
  %0 = load i64, ptr %nOptionTenors_, align 8, !tbaa !65
  %cmp9.not = icmp eq i64 %0, 0
  br i1 %cmp9.not, label %for.cond.cleanup, label %for.body.lr.ph

for.body.lr.ph:                                   ; preds = %entry
  %add.ptr = getelementptr inbounds i8, ptr %this, i64 16
  %optionTenors_ = getelementptr inbounds nuw i8, ptr %this, i64 96
  %pn.i.i.i = getelementptr inbounds nuw i8, ptr %ref.tmp.i, i64 8
  %optionDates_ = getelementptr inbounds nuw i8, ptr %this, i64 120
  %optionTimes_ = getelementptr inbounds nuw i8, ptr %this, i64 144
  br label %for.body

for.cond.cleanup:                                 ; preds = %_ZNK8QuantLib23VolatilityTermStructure19optionDateFromTenorERKNS_6PeriodE.exit, %entry
  ret void

for.body:                                         ; preds = %for.body.lr.ph, %_ZNK8QuantLib23VolatilityTermStructure19optionDateFromTenorERKNS_6PeriodE.exit
  %i.010 = phi i64 [ 0, %for.body.lr.ph ], [ %inc, %_ZNK8QuantLib23VolatilityTermStructure19optionDateFromTenorERKNS_6PeriodE.exit ]
  %1 = load ptr, ptr %optionTenors_, align 8, !tbaa !64
  %add.ptr.i = getelementptr inbounds nuw %"class.QuantLib::Period", ptr %1, i64 %i.010
  call void @llvm.lifetime.start.p0(i64 16, ptr nonnull %ref.tmp.i) #26
  %vtable.i = load ptr, ptr %add.ptr, align 8, !tbaa !47
  %vfn.i = getelementptr inbounds i8, ptr %vtable.i, i64 48
  %2 = load ptr, ptr %vfn.i, align 8
  call void %2(ptr dead_on_unwind nonnull writable sret(%"class.QuantLib::Calendar") align 8 %ref.tmp.i, ptr noundef nonnull align 8 dereferenceable(64) %add.ptr)
  %vtable2.i = load ptr, ptr %add.ptr, align 8, !tbaa !47
  %vfn3.i = getelementptr inbounds i8, ptr %vtable2.i, i64 40
  %3 = load ptr, ptr %vfn3.i, align 8
  %call.i = invoke noundef nonnull align 8 dereferenceable(8) ptr %3(ptr noundef nonnull align 8 dereferenceable(64) %add.ptr)
          to label %invoke.cont.i unwind label %lpad.i

invoke.cont.i:                                    ; preds = %for.body
  %vtable4.i = load ptr, ptr %add.ptr, align 8, !tbaa !47
  %vfn5.i = getelementptr inbounds i8, ptr %vtable4.i, i64 72
  %4 = load ptr, ptr %vfn5.i, align 8
  %call7.i = invoke noundef i32 %4(ptr noundef nonnull align 8 dereferenceable(68) %add.ptr)
          to label %invoke.cont6.i unwind label %lpad.i

invoke.cont6.i:                                   ; preds = %invoke.cont.i
  %call9.i = invoke i64 @_ZNK8QuantLib8Calendar7advanceERKNS_4DateERKNS_6PeriodENS_21BusinessDayConventionEb(ptr noundef nonnull align 8 dereferenceable(16) %ref.tmp.i, ptr noundef nonnull align 8 dereferenceable(8) %call.i, ptr noundef nonnull align 4 dereferenceable(8) %add.ptr.i, i32 noundef %call7.i, i1 noundef zeroext false)
          to label %invoke.cont8.i unwind label %lpad.i

invoke.cont8.i:                                   ; preds = %invoke.cont6.i
  %5 = load ptr, ptr %pn.i.i.i, align 8, !tbaa !31
  %cmp.not.i.i.i.i = icmp eq ptr %5, null
  br i1 %cmp.not.i.i.i.i, label %_ZNK8QuantLib23VolatilityTermStructure19optionDateFromTenorERKNS_6PeriodE.exit, label %if.then.i.i.i.i

if.then.i.i.i.i:                                  ; preds = %invoke.cont8.i
  %use_count_.i.i.i.i.i = getelementptr inbounds nuw i8, ptr %5, i64 8
  %6 = atomicrmw sub ptr %use_count_.i.i.i.i.i, i32 1 acq_rel, align 4
  %cmp.i.i.i.i.i = icmp eq i32 %6, 1
  br i1 %cmp.i.i.i.i.i, label %if.then.i.i.i.i.i, label %_ZNK8QuantLib23VolatilityTermStructure19optionDateFromTenorERKNS_6PeriodE.exit

if.then.i.i.i.i.i:                                ; preds = %if.then.i.i.i.i
  %vtable.i.i.i.i.i = load ptr, ptr %5, align 8, !tbaa !47
  %vfn.i.i.i.i.i = getelementptr inbounds i8, ptr %vtable.i.i.i.i.i, i64 16
  %7 = load ptr, ptr %vfn.i.i.i.i.i, align 8
  invoke void %7(ptr noundef nonnull align 8 dereferenceable(16) %5)
          to label %.noexc.i.i.i.i unwind label %terminate.lpad.i.i.i.i

.noexc.i.i.i.i:                                   ; preds = %if.then.i.i.i.i.i
  %weak_count_.i.i.i.i.i.i = getelementptr inbounds nuw i8, ptr %5, i64 12
  %8 = atomicrmw sub ptr %weak_count_.i.i.i.i.i.i, i32 1 acq_rel, align 4
  %cmp.i.i.i.i.i.i = icmp eq i32 %8, 1
  br i1 %cmp.i.i.i.i.i.i, label %if.then.i.i.i.i.i.i, label %_ZNK8QuantLib23VolatilityTermStructure19optionDateFromTenorERKNS_6PeriodE.exit

if.then.i.i.i.i.i.i:                              ; preds = %.noexc.i.i.i.i
  %vtable.i.i.i.i.i.i = load ptr, ptr %5, align 8, !tbaa !47
  %vfn.i.i.i.i.i.i = getelementptr inbounds i8, ptr %vtable.i.i.i.i.i.i, i64 24
  %9 = load ptr, ptr %vfn.i.i.i.i.i.i, align 8
  invoke void %9(ptr noundef nonnull align 8 dereferenceable(16) %5)
          to label %_ZNK8QuantLib23VolatilityTermStructure19optionDateFromTenorERKNS_6PeriodE.exit unwind label %terminate.lpad.i.i.i.i

terminate.lpad.i.i.i.i:                           ; preds = %if.then.i.i.i.i.i.i, %if.then.i.i.i.i.i
  %10 = landingpad { ptr, i32 }
          catch ptr null
  %11 = extractvalue { ptr, i32 } %10, 0
  call void @__clang_call_terminate(ptr %11) #27
  unreachable

lpad.i:                                           ; preds = %invoke.cont6.i, %invoke.cont.i, %for.body
  %12 = landingpad { ptr, i32 }
          cleanup
  call void @_ZN8QuantLib8CalendarD2Ev(ptr noundef nonnull align 8 dereferenceable(16) %ref.tmp.i) #26
  call void @llvm.lifetime.end.p0(i64 16, ptr nonnull %ref.tmp.i) #26
  resume { ptr, i32 } %12

_ZNK8QuantLib23VolatilityTermStructure19optionDateFromTenorERKNS_6PeriodE.exit: ; preds = %invoke.cont8.i, %if.then.i.i.i.i, %.noexc.i.i.i.i, %if.then.i.i.i.i.i.i
  call void @llvm.lifetime.end.p0(i64 16, ptr nonnull %ref.tmp.i) #26
  %13 = load ptr, ptr %optionDates_, align 8, !tbaa !100
  %add.ptr.i6 = getelementptr inbounds nuw %"class.QuantLib::Date", ptr %13, i64 %i.010
  store i64 %call9.i, ptr %add.ptr.i6, align 8, !tbaa !59
  %call7 = call noundef double @_ZNK8QuantLib13TermStructure17timeFromReferenceERKNS_4DateE(ptr noundef nonnull align 8 dereferenceable(64) %add.ptr, ptr noundef nonnull align 8 dereferenceable(8) %add.ptr.i6)
  %14 = load ptr, ptr %optionTimes_, align 8, !tbaa !89
  %add.ptr.i8 = getelementptr inbounds nuw double, ptr %14, i64 %i.010
  store double %call7, ptr %add.ptr.i8, align 8, !tbaa !91
  %inc = add nuw i64 %i.010, 1
  %15 = load i64, ptr %nOptionTenors_, align 8, !tbaa !65
  %cmp = icmp ult i64 %inc, %15
  br i1 %cmp, label %for.body, label %for.cond.cleanup, !llvm.loop !105
}